target datalayout = "e-m:e-p270:32:32-p271:32:32-p272:64:64-i64:64-i128:128-f80:128-n8:16:32:64-S128"
target triple = "x86_64-pc-linux-gnu"

; Function Attrs: nounwind uwtable
define void @ff_matrix_mul_3x3_vec(ptr noundef %0, ptr noundef %1, ptr noundef %2) #0 {
  %4 = alloca ptr, align 8
  %5 = alloca ptr, align 8
  %6 = alloca ptr, align 8
  %7 = alloca i32, align 4
  store ptr %0, ptr %4, align 8, !tbaa !4
  store ptr %1, ptr %5, align 8, !tbaa !4
  store ptr %2, ptr %6, align 8, !tbaa !4
  call void @llvm.lifetime.start.p0(i64 4, ptr %7) #7
  store i32 0, ptr %7, align 4, !tbaa !11
  br label %8

8:                                                ; preds = %46, %3
  %9 = load i32, ptr %7, align 4, !tbaa !11
  %10 = icmp slt i32 %9, 3
  br i1 %10, label %11, label %49

11:                                               ; preds = %8
  %12 = load ptr, ptr %5, align 8, !tbaa !4
  %13 = getelementptr inbounds double, ptr %12, i64 0
  %14 = load double, ptr %13, align 8, !tbaa !9
  %15 = load ptr, ptr %6, align 8, !tbaa !4
  %16 = load i32, ptr %7, align 4, !tbaa !11
  %17 = sext i32 %16 to i64
  %18 = getelementptr inbounds [3 x double], ptr %15, i64 %17
  %19 = getelementptr inbounds [3 x double], ptr %18, i64 0, i64 0
  %20 = load double, ptr %19, align 8, !tbaa !9
  %21 = load ptr, ptr %5, align 8, !tbaa !4
  %22 = getelementptr inbounds double, ptr %21, i64 1
  %23 = load double, ptr %22, align 8, !tbaa !9
  %24 = load ptr, ptr %6, align 8, !tbaa !4
  %25 = load i32, ptr %7, align 4, !tbaa !11
  %26 = sext i32 %25 to i64
  %27 = getelementptr inbounds [3 x double], ptr %24, i64 %26
  %28 = getelementptr inbounds [3 x double], ptr %27, i64 0, i64 1
  %29 = load double, ptr %28, align 8, !tbaa !9
  %30 = fmul nsz double %23, %29
  %31 = call nsz double @llvm.fmuladd.f64(double %14, double %20, double %30)
  %32 = load ptr, ptr %5, align 8, !tbaa !4
  %33 = getelementptr inbounds double, ptr %32, i64 2
  %34 = load double, ptr %33, align 8, !tbaa !9
  %35 = load ptr, ptr %6, align 8, !tbaa !4
  %36 = load i32, ptr %7, align 4, !tbaa !11
  %37 = sext i32 %36 to i64
  %38 = getelementptr inbounds [3 x double], ptr %35, i64 %37
  %39 = getelementptr inbounds [3 x double], ptr %38, i64 0, i64 2
  %40 = load double, ptr %39, align 8, !tbaa !9
  %41 = call nsz double @llvm.fmuladd.f64(double %34, double %40, double %31)
  %42 = load ptr, ptr %4, align 8, !tbaa !4
  %43 = load i32, ptr %7, align 4, !tbaa !11
  %44 = sext i32 %43 to i64
  %45 = getelementptr inbounds double, ptr %42, i64 %44
  store double %41, ptr %45, align 8, !tbaa !9
  br label %46

46:                                               ; preds = %11
  %47 = load i32, ptr %7, align 4, !tbaa !11
  %48 = add nsw i32 %47, 1
  store i32 %48, ptr %7, align 4, !tbaa !11
  br label %8, !llvm.loop !18

49:                                               ; preds = %8
  call void @llvm.lifetime.end.p0(i64 4, ptr %7) #7
  ret void
}