; Function Attrs: nofree norecurse nosync nounwind memory(argmem: readwrite) uwtable
define void @ff_matrix_mul_3x3_vec(ptr noundef writeonly captures(none) %0, ptr noundef readonly captures(none) %1, ptr noundef readonly captures(none) %2) local_unnamed_addr #0 {
  %4 = getelementptr inbounds nuw i8, ptr %1, i64 8
  %5 = getelementptr inbounds nuw i8, ptr %1, i64 16
  br label %6

6:                                                ; preds = %3, %6
  %indvars.iv = phi i64 [ 0, %3 ], [ %indvars.iv.next, %6 ]
  %7 = load double, ptr %1, align 8, !tbaa !4
  %8 = getelementptr inbounds nuw [3 x double], ptr %2, i64 %indvars.iv
  %9 = load double, ptr %8, align 8, !tbaa !4
  %10 = load double, ptr %4, align 8, !tbaa !4
  %11 = getelementptr inbounds nuw i8, ptr %8, i64 8
  %12 = load double, ptr %11, align 8, !tbaa !4
  %13 = fmul nsz double %10, %12
  %14 = tail call nsz double @llvm.fmuladd.f64(double %7, double %9, double %13)
  %15 = load double, ptr %5, align 8, !tbaa !4
  %16 = getelementptr inbounds nuw i8, ptr %8, i64 16
  %17 = load double, ptr %16, align 8, !tbaa !4
  %18 = tail call nsz double @llvm.fmuladd.f64(double %15, double %17, double %14)
  %19 = getelementptr inbounds nuw double, ptr %0, i64 %indvars.iv
  store double %18, ptr %19, align 8, !tbaa !4
  %indvars.iv.next = add nuw nsw i64 %indvars.iv, 1
  %exitcond.not = icmp eq i64 %indvars.iv.next, 3
  br i1 %exitcond.not, label %20, label %6, !llvm.loop !13

20:                                               ; preds = %6
  ret void
}